; Function Attrs: nounwind uwtable
define dso_local range(i32 -1, 1) i32 @auth_g_fini() local_unnamed_addr #2 {
  %1 = tail call i32 @pthread_rwlock_wrlock(ptr noundef nonnull @context_lock) #12
  %.not = icmp eq i32 %1, 0
  br i1 %.not, label %4, label %2

2:                                                ; preds = %0
  %3 = tail call ptr @__errno_location() #13
  store i32 %1, ptr %3, align 4
  tail call void (ptr, ...) @fatal_abort(ptr noundef nonnull @.str.7, ptr noundef nonnull @__func__.auth_g_fini) #11
  unreachable

4:                                                ; preds = %0
  %5 = load ptr, ptr @g_context, align 8
  %.not15 = icmp eq ptr %5, null
  br i1 %.not15, label %26, label %.preheader

.preheader:                                       ; preds = %4
  %6 = load i32, ptr @g_context_num, align 4
  %7 = icmp sgt i32 %6, 0
  br i1 %7, label %.lr.ph, label %._crit_edge

.lr.ph:                                           ; preds = %.preheader, %22
  %indvars.iv = phi i64 [ %indvars.iv.next, %22 ], [ 0, %.preheader ]
  %.01118 = phi i32 [ %.1, %22 ], [ 0, %.preheader ]
  %8 = load ptr, ptr @g_context, align 8
  %9 = getelementptr inbounds nuw ptr, ptr %8, i64 %indvars.iv
  %10 = load ptr, ptr %9, align 8
  %11 = tail call i32 @plugin_context_destroy(ptr noundef %10) #12
  %.not17 = icmp eq i32 %11, 0
  br i1 %.not17, label %22, label %12

12:                                               ; preds = %.lr.ph
  %13 = tail call i32 @get_log_level() #12
  %14 = icmp sgt i32 %13, 4
  br i1 %14, label %15, label %22

15:                                               ; preds = %12
  %16 = load ptr, ptr @g_context, align 8
  %17 = getelementptr inbounds nuw ptr, ptr %16, i64 %indvars.iv
  %18 = load ptr, ptr %17, align 8
  %19 = getelementptr inbounds nuw i8, ptr %18, i64 16
  %20 = load ptr, ptr %19, align 8
  %21 = tail call ptr @slurm_strerror(i32 noundef %11) #12
  tail call void (i32, ptr, ...) @log_var(i32 noundef 5, ptr noundef nonnull @.str.18, ptr noundef nonnull @__func__.auth_g_fini, ptr noundef %20, ptr noundef %21) #12
  br label %22

22:                                               ; preds = %12, %15, %.lr.ph
  %.1 = phi i32 [ %.01118, %.lr.ph ], [ -1, %15 ], [ -1, %12 ]
  %indvars.iv.next = add nuw nsw i64 %indvars.iv, 1
  %23 = load i32, ptr @g_context_num, align 4
  %24 = sext i32 %23 to i64
  %25 = icmp slt i64 %indvars.iv.next, %24
  br i1 %25, label %.lr.ph, label %._crit_edge, !llvm.loop !15

._crit_edge:                                      ; preds = %22, %.preheader
  %.011.lcssa = phi i32 [ 0, %.preheader ], [ %.1, %22 ]
  tail call void @slurm_xfree(ptr noundef nonnull @ops) #12
  tail call void @slurm_xfree(ptr noundef nonnull @g_context) #12
  store i32 -1, ptr @g_context_num, align 4
  br label %26

26:                                               ; preds = %._crit_edge, %4
  %.2 = phi i32 [ %.011.lcssa, %._crit_edge ], [ 0, %4 ]
  %27 = tail call i32 @pthread_rwlock_unlock(ptr noundef nonnull @context_lock) #12
  %.not16 = icmp eq i32 %27, 0
  br i1 %.not16, label %30, label %28

28:                                               ; preds = %26
  %29 = tail call ptr @__errno_location() #13
  store i32 %27, ptr %29, align 4
  tail call void (ptr, ...) @fatal_abort(ptr noundef nonnull @.str.17, ptr noundef nonnull @__func__.auth_g_fini) #11
  unreachable

30:                                               ; preds = %26
  ret i32 %.2
}